; Function Attrs: nounwind uwtable
define internal ptr @arrayiter_next(ptr noundef captures(none) %0) #0 {
  %2 = getelementptr inbounds nuw i8, ptr %0, i64 24
  %3 = load ptr, ptr %2, align 8, !tbaa !101
  %4 = icmp eq ptr %3, null
  br i1 %4, label %Py_DECREF.exit, label %5

5:                                                ; preds = %1
  %6 = getelementptr inbounds nuw i8, ptr %0, i64 16
  %7 = load i64, ptr %6, align 8, !tbaa !104
  %8 = getelementptr i8, ptr %3, i64 16
  %.val = load i64, ptr %8, align 8, !tbaa !40
  %9 = icmp slt i64 %7, %.val
  br i1 %9, label %10, label %15

10:                                               ; preds = %5
  %11 = getelementptr inbounds nuw i8, ptr %0, i64 32
  %12 = load ptr, ptr %11, align 8, !tbaa !105
  %13 = add nsw i64 %7, 1
  store i64 %13, ptr %6, align 8, !tbaa !104
  %14 = tail call ptr %12(ptr noundef nonnull %3, i64 noundef %7) #11
  br label %Py_DECREF.exit

15:                                               ; preds = %5
  store ptr null, ptr %2, align 8, !tbaa !101
  %16 = load i32, ptr %3, align 8, !tbaa !17
  %.not.i = icmp sgt i32 %16, -1
  br i1 %.not.i, label %17, label %Py_DECREF.exit

17:                                               ; preds = %15
  %18 = add nsw i32 %16, -1
  store i32 %18, ptr %3, align 8, !tbaa !17
  %19 = icmp eq i32 %18, 0
  br i1 %19, label %20, label %Py_DECREF.exit

20:                                               ; preds = %17
  tail call void @_Py_Dealloc(ptr noundef nonnull %3) #11
  br label %Py_DECREF.exit

Py_DECREF.exit:                                   ; preds = %20, %17, %15, %1, %10
  %.0 = phi ptr [ %14, %10 ], [ null, %1 ], [ null, %15 ], [ null, %17 ], [ null, %20 ]
  ret ptr %.0
}